# SymbolsHelper-Confirmed: 4:15.08.1+git20150917.0856 amd64 i386
libAnalitzaGui.so.7 libanalitzagui7 #MINVER#
 _ZN14OperatorsModel11descriptionERKN8Analitza8OperatorE@Base 4:14.11.97
 _ZN14OperatorsModel17updateInformationEv@Base 4:14.11.97
 _ZN14OperatorsModel24standardFunctionCallHelpERK7QStringiibb@Base 4:14.11.97
 _ZN14OperatorsModel6sampleERKN8Analitza8OperatorE@Base 4:14.11.97
 _ZN14OperatorsModel7exampleERKN8Analitza8OperatorE@Base 4:14.11.97
 _ZN14OperatorsModelC1EP7QObject@Base 4:14.11.97
 _ZN14OperatorsModelC2EP7QObject@Base 4:14.11.97
 _ZN18AlgebraHighlighter14highlightBlockERK7QString@Base 4:14.11.97
 _ZN18AlgebraHighlighterC1EP13QTextDocumentPKN8Analitza8AnalyzerE@Base 4:14.11.97
 _ZN18AlgebraHighlighterC2EP13QTextDocumentPKN8Analitza8AnalyzerE@Base 4:14.11.97
 _ZN8Analitza14VariablesModel11qt_metacallEN11QMetaObject4CallEiPPv@Base 4:14.11.97
 _ZN8Analitza14VariablesModel11qt_metacastEPKc@Base 4:14.11.97
 _ZN8Analitza14VariablesModel12setVariablesEPNS_9VariablesE@Base 4:14.11.97
 _ZN8Analitza14VariablesModel14insertVariableERK7QStringRKNS_10ExpressionE@Base 4:14.11.97
 _ZN8Analitza14VariablesModel16staticMetaObjectE@Base 4:14.11.97
 _ZN8Analitza14VariablesModel17updateInformationEv@Base 4:14.11.97
 _ZN8Analitza14VariablesModel7setDataERK11QModelIndexRK8QVarianti@Base 4:14.11.97
 _ZN8Analitza14VariablesModelC1EP7QObject@Base 4:14.11.97
 _ZN8Analitza14VariablesModelC1EPNS_9VariablesEP7QObject@Base 4:14.11.97
 _ZN8Analitza14VariablesModelC2EP7QObject@Base 4:14.11.97
 _ZN8Analitza14VariablesModelC2EPNS_9VariablesEP7QObject@Base 4:14.11.97
 _ZNK14OperatorsModel10headerDataEiN2Qt11OrientationEi@Base 4:14.11.97
 _ZNK14OperatorsModel11columnCountERK11QModelIndex@Base 4:14.11.97
 _ZNK14OperatorsModel13parameterHelpERK11QModelIndexib@Base 4:14.11.97
 _ZNK14OperatorsModel20indexForOperatorNameERK7QString@Base 4:14.11.97
 _ZNK14OperatorsModel4dataERK11QModelIndexi@Base 4:14.11.97
 _ZNK14OperatorsModel8rowCountERK11QModelIndex@Base 4:14.11.97
 _ZNK18AlgebraHighlighter11editingNameEv@Base 4:14.11.97
 _ZNK18AlgebraHighlighter13editingBoundsEv@Base 4:14.11.97
 _ZNK18AlgebraHighlighter16editingParameterEv@Base 4:14.11.97
 _ZNK8Analitza14VariablesModel10headerDataEiN2Qt11OrientationEi@Base 4:14.11.97
 _ZNK8Analitza14VariablesModel10metaObjectEv@Base 4:14.11.97
 _ZNK8Analitza14VariablesModel4dataERK11QModelIndexi@Base 4:14.11.97
 _ZNK8Analitza14VariablesModel5flagsERK11QModelIndex@Base 4:14.11.97
 _ZNK8Analitza14VariablesModel8rowCountERK11QModelIndex@Base 4:14.11.97
 _ZTI14OperatorsModel@Base 4:14.11.97
 _ZTI18AlgebraHighlighter@Base 4:14.11.97
 _ZTIN8Analitza14VariablesModelE@Base 4:14.11.97
 _ZTS14OperatorsModel@Base 4:14.11.97
 _ZTS18AlgebraHighlighter@Base 4:14.11.97
 _ZTSN8Analitza14VariablesModelE@Base 4:14.11.97
 _ZTV14OperatorsModel@Base 4:14.11.97
 _ZTV18AlgebraHighlighter@Base 4:14.11.97
 _ZTVN8Analitza14VariablesModelE@Base 4:14.11.97
