# SymbolsHelper-Confirmed: 4:15.12.0 amd64 armhf
libAnalitzaWidgets.so.7 libanalitzawidgets7 #MINVER#
 _ZN8Analitza11PlotsView2D10paintEventEP11QPaintEvent@Base 4:14.11.97
 _ZN8Analitza11PlotsView2D10wheelEventEP11QWheelEvent@Base 4:14.11.97
 _ZN8Analitza11PlotsView2D11qt_metacallEN11QMetaObject4CallEiPPv@Base 4:14.11.97
 _ZN8Analitza11PlotsView2D11qt_metacastEPKc@Base 4:14.11.97
 _ZN8Analitza11PlotsView2D11removeFuncsERK11QModelIndexii@Base 4:14.11.97
 _ZN8Analitza11PlotsView2D11resizeEventEP12QResizeEvent@Base 4:14.11.97
 _ZN8Analitza11PlotsView2D11setReadOnlyEb@Base 4:14.11.97
 _ZN8Analitza11PlotsView2D11updateFuncsERK11QModelIndexS3_@Base 4:14.11.97
 _ZN8Analitza11PlotsView2D11updateFuncsERK11QModelIndexii@Base 4:14.11.97
 _ZN8Analitza11PlotsView2D12modelChangedEv@Base 4:14.11.97
 _ZN8Analitza11PlotsView2D13keyPressEventEP9QKeyEvent@Base 4:14.11.97
 _ZN8Analitza11PlotsView2D14mouseMoveEventEP11QMouseEvent@Base 4:14.11.97
 _ZN8Analitza11PlotsView2D15mousePressEventEP11QMouseEvent@Base 4:14.11.97
 _ZN8Analitza11PlotsView2D15viewportChangedERK6QRectF@Base 4:14.11.97
 _ZN8Analitza11PlotsView2D15viewportChangedEv@Base 4:14.11.97
 _ZN8Analitza11PlotsView2D16staticMetaObjectE@Base 4:14.11.97
 _ZN8Analitza11PlotsView2D17mouseReleaseEventEP11QMouseEvent@Base 4:14.11.97
 _ZN8Analitza11PlotsView2D17setSelectionModelEP19QItemSelectionModel@Base 4:14.11.97
 _ZN8Analitza11PlotsView2D19snapshotToClipboardEv@Base 4:14.11.97
 _ZN8Analitza11PlotsView2D6statusERK7QString@Base 4:14.11.97
 _ZN8Analitza11PlotsView2D7toImageERK7QStringNS0_6FormatE@Base 4:14.11.97
 _ZN8Analitza11PlotsView2D8addFuncsERK11QModelIndexii@Base 4:14.11.97
 _ZN8Analitza11PlotsView2DC1EP7QWidget@Base 4:14.11.97
 _ZN8Analitza11PlotsView2DC2EP7QWidget@Base 4:14.11.97
 _ZN8Analitza11PlotsView2DD0Ev@Base 4:14.11.97
 _ZN8Analitza11PlotsView2DD1Ev@Base 4:14.11.97
 _ZN8Analitza11PlotsView2DD2Ev@Base 4:14.11.97
 _ZN8Analitza11PlotsView3D10wheelEventEP11QWheelEvent@Base 4:15.12.0
 _ZN8Analitza11PlotsView3D11qt_metacallEN11QMetaObject4CallEiPPv@Base 4:15.12.0
 _ZN8Analitza11PlotsView3D11qt_metacastEPKc@Base 4:15.12.0
 _ZN8Analitza11PlotsView3D11removeFuncsERK11QModelIndexii@Base 4:15.12.0
 _ZN8Analitza11PlotsView3D11updateFuncsERK11QModelIndexS3_@Base 4:15.12.0
 _ZN8Analitza11PlotsView3D12initializeGLEv@Base 4:15.12.0
 _ZN8Analitza11PlotsView3D12modelChangedEv@Base 4:15.12.0
 _ZN8Analitza11PlotsView3D13keyPressEventEP9QKeyEvent@Base 4:15.12.0
 _ZN8Analitza11PlotsView3D14mouseMoveEventEP11QMouseEvent@Base 4:15.12.0
 _ZN8Analitza11PlotsView3D15mousePressEventEP11QMouseEvent@Base 4:15.12.0
 _ZN8Analitza11PlotsView3D16staticMetaObjectE@Base 4:15.12.0
 _ZN8Analitza11PlotsView3D17setSelectionModelEP19QItemSelectionModel@Base 4:15.12.0
 _ZN8Analitza11PlotsView3D7paintGLEv@Base 4:15.12.0
 _ZN8Analitza11PlotsView3D8addFuncsERK11QModelIndexii@Base 4:15.12.0
 _ZN8Analitza11PlotsView3D8renderGLEv@Base 4:15.12.0
 _ZN8Analitza11PlotsView3D8resizeGLEii@Base 4:15.12.0
 _ZN8Analitza11PlotsView3D9resetViewEv@Base 4:15.12.0
 _ZN8Analitza11PlotsView3DC1EP7QWidget@Base 4:15.12.0
 _ZN8Analitza11PlotsView3DC2EP7QWidget@Base 4:15.12.0
 _ZN8Analitza11PlotsView3DD0Ev@Base 4:15.12.0
 _ZN8Analitza11PlotsView3DD1Ev@Base 4:15.12.0
 _ZN8Analitza11PlotsView3DD2Ev@Base 4:15.12.0
 _ZN8Analitza13PlotsView3DES10wheelEventEP11QWheelEvent@Base 4:15.12.0
 _ZN8Analitza13PlotsView3DES11qt_metacallEN11QMetaObject4CallEiPPv@Base 4:15.12.0
 _ZN8Analitza13PlotsView3DES11qt_metacastEPKc@Base 4:15.12.0
 _ZN8Analitza13PlotsView3DES11removeFuncsERK11QModelIndexii@Base 4:15.12.0
 _ZN8Analitza13PlotsView3DES11updateFuncsERK11QModelIndexS3_@Base 4:15.12.0
 _ZN8Analitza13PlotsView3DES12initializeGLEv@Base 4:15.12.0
 _ZN8Analitza13PlotsView3DES12modelChangedEv@Base 4:15.12.0
 _ZN8Analitza13PlotsView3DES13keyPressEventEP9QKeyEvent@Base 4:15.12.0
 _ZN8Analitza13PlotsView3DES14mouseMoveEventEP11QMouseEvent@Base 4:15.12.0
 _ZN8Analitza13PlotsView3DES15mousePressEventEP11QMouseEvent@Base 4:15.12.0
 _ZN8Analitza13PlotsView3DES16staticMetaObjectE@Base 4:15.12.0
 _ZN8Analitza13PlotsView3DES17setSelectionModelEP19QItemSelectionModel@Base 4:15.12.0
 _ZN8Analitza13PlotsView3DES7paintGLEv@Base 4:15.12.0
 _ZN8Analitza13PlotsView3DES8addFuncsERK11QModelIndexii@Base 4:15.12.0
 _ZN8Analitza13PlotsView3DES8renderGLEv@Base 4:15.12.0
 _ZN8Analitza13PlotsView3DES8resizeGLEii@Base 4:15.12.0
 _ZN8Analitza13PlotsView3DES9resetViewEv@Base 4:15.12.0
 _ZN8Analitza13PlotsView3DESC1EP7QWidget@Base 4:15.12.0
 _ZN8Analitza13PlotsView3DESC2EP7QWidget@Base 4:15.12.0
 _ZN8Analitza13PlotsView3DESD0Ev@Base 4:15.12.0
 _ZN8Analitza13PlotsView3DESD1Ev@Base 4:15.12.0
 _ZN8Analitza13PlotsView3DESD2Ev@Base 4:15.12.0
 _ZN8Analitza14ExpressionEdit10insertTextERK7QString@Base 4:14.11.97
 _ZN8Analitza14ExpressionEdit10setCorrectEb@Base 4:14.11.97
 _ZN8Analitza14ExpressionEdit11qt_metacallEN11QMetaObject4CallEiPPv@Base 4:14.11.97
 _ZN8Analitza14ExpressionEdit11qt_metacastEPKc@Base 4:14.11.97
 _ZN8Analitza14ExpressionEdit11returnPressEv@Base 4:14.11.97
 _ZN8Analitza14ExpressionEdit11setAnalitzaEPNS_8AnalyzerE@Base 4:14.11.97
 _ZN8Analitza14ExpressionEdit12focusInEventEP11QFocusEvent@Base 4:14.11.97
 _ZN8Analitza14ExpressionEdit12signalHelperE7QString@Base 4:14.11.97
 _ZN8Analitza14ExpressionEdit13focusOutEventEP11QFocusEvent@Base 4:14.11.97
 _ZN8Analitza14ExpressionEdit13keyPressEventEP9QKeyEvent@Base 4:14.11.97
 _ZN8Analitza14ExpressionEdit13returnPressedEv@Base 4:14.11.97
 _ZN8Analitza14ExpressionEdit13setActionTextEP7QAction@Base 4:14.11.97
 _ZN8Analitza14ExpressionEdit13setExpressionERKNS_10ExpressionE@Base 4:14.11.97
 _ZN8Analitza14ExpressionEdit14showSimplifiedEv@Base 4:14.11.97
 _ZN8Analitza14ExpressionEdit15updateCompleterEv@Base 4:14.11.97
 _ZN8Analitza14ExpressionEdit16contextMenuEventEP17QContextMenuEvent@Base 4:14.11.97
 _ZN8Analitza14ExpressionEdit16staticMetaObjectE@Base 4:14.11.97
 _ZN8Analitza14ExpressionEdit6helperERK7QString@Base 4:14.11.97
 _ZN8Analitza14ExpressionEdit6helperERK7QStringRK6QPoint@Base 4:14.11.97
 _ZN8Analitza14ExpressionEdit7returnPEv@Base 4:14.11.97
 _ZN8Analitza14ExpressionEdit7setModeEN18AlgebraHighlighter4ModeE@Base 4:14.11.97
 _ZN8Analitza14ExpressionEdit8lastWordEi@Base 4:14.11.97
 _ZN8Analitza14ExpressionEdit8removenlEv@Base 4:14.11.97
 _ZN8Analitza14ExpressionEdit8simplifyEv@Base 4:14.11.97
 _ZN8Analitza14ExpressionEdit9completedERK7QString@Base 4:14.11.97
 _ZN8Analitza14ExpressionEdit9cursorMovEv@Base 4:14.11.97
 _ZN8Analitza14ExpressionEditC1EP7QWidgetN18AlgebraHighlighter4ModeE@Base 4:14.11.97
 _ZN8Analitza14ExpressionEditC2EP7QWidgetN18AlgebraHighlighter4ModeE@Base 4:14.11.97
 _ZN8Analitza14ExpressionEditD0Ev@Base 4:14.11.97
 _ZN8Analitza14ExpressionEditD1Ev@Base 4:14.11.97
 _ZN8Analitza14ExpressionEditD2Ev@Base 4:14.11.97
 _ZNK8Analitza11PlotsView2D10metaObjectEv@Base 4:14.11.97
 _ZNK8Analitza11PlotsView2D15currentFunctionEv@Base 4:14.11.97
 _ZNK8Analitza11PlotsView2D15definedViewportEv@Base 4:14.11.97
 _ZNK8Analitza11PlotsView3D10metaObjectEv@Base 4:15.12.0
 _ZNK8Analitza13PlotsView3DES10metaObjectEv@Base 4:15.12.0
 _ZNK8Analitza14ExpressionEdit10expressionEv@Base 4:14.11.97
 _ZNK8Analitza14ExpressionEdit10metaObjectEv@Base 4:14.11.97
 _ZNK8Analitza14ExpressionEdit8helpShowERK7QStringibPKNS_9VariablesE@Base 4:14.11.97
 _ZNK8Analitza14ExpressionEdit8isMathMLEv@Base 4:14.11.97
 _ZNK8Analitza14ExpressionEdit9isCorrectEv@Base 4:14.11.97
 _ZTIN8Analitza11PlotsView2DE@Base 4:14.11.97
 _ZTIN8Analitza11PlotsView3DE@Base 4:15.12.0
 _ZTIN8Analitza13PlotsView3DESE@Base 4:15.12.0
 _ZTIN8Analitza14ExpressionEditE@Base 4:14.11.97
 _ZTSN8Analitza11PlotsView2DE@Base 4:14.11.97
 _ZTSN8Analitza11PlotsView3DE@Base 4:15.12.0
 _ZTSN8Analitza13PlotsView3DESE@Base 4:15.12.0
 _ZTSN8Analitza14ExpressionEditE@Base 4:14.11.97
 _ZTVN8Analitza11PlotsView2DE@Base 4:14.11.97
 _ZTVN8Analitza11PlotsView3DE@Base 4:15.12.0
 _ZTVN8Analitza13PlotsView3DESE@Base 4:15.12.0
 _ZTVN8Analitza14ExpressionEditE@Base 4:14.11.97
 (c++)"non-virtual thunk to Analitza::ExpressionEdit::~ExpressionEdit()@Base" 4:14.11.97
 (c++)"non-virtual thunk to Analitza::PlotsView2D::currentFunction() const@Base" 4:14.11.97
 (c++)"non-virtual thunk to Analitza::PlotsView2D::modelChanged()@Base" 4:14.11.97
 (c++)"non-virtual thunk to Analitza::PlotsView2D::viewportChanged()@Base" 4:14.11.97
 (c++)"non-virtual thunk to Analitza::PlotsView2D::~PlotsView2D()@Base" 4:14.11.97
 (c++)"non-virtual thunk to Analitza::PlotsView3D::modelChanged()@Base" 4:15.12.0
 (c++)"non-virtual thunk to Analitza::PlotsView3D::renderGL()@Base" 4:15.12.0
 (c++)"non-virtual thunk to Analitza::PlotsView3D::~PlotsView3D()@Base" 4:15.12.0
 (c++)"non-virtual thunk to Analitza::PlotsView3DES::modelChanged()@Base" 4:15.12.0
 (c++)"non-virtual thunk to Analitza::PlotsView3DES::renderGL()@Base" 4:15.12.0
 (c++)"non-virtual thunk to Analitza::PlotsView3DES::~PlotsView3DES()@Base" 4:15.12.0
