# SymbolsHelper-Confirmed: 4:4.12.80 amd64
libanalitzaplot.so.5abi1 libanalitzaplot5abi1 #MINVER#
 ABI_5_1@ABI_5_1 4:4.12.80
 _ZN8Analitza10PlaneCurve5imageERK7QPointF@ABI_5_1 4:4.12.80
 _ZN8Analitza10PlaneCurve6updateERK6QRectF@ABI_5_1 4:4.12.80
 _ZN8Analitza10PlaneCurve7tangentERK7QPointF@ABI_5_1 4:4.12.80
 _ZN8Analitza10PlaneCurveC1EPNS_21AbstractFunctionGraphE@ABI_5_1 4:4.12.80
 _ZN8Analitza10PlaneCurveC2EPNS_21AbstractFunctionGraphE@ABI_5_1 4:4.12.80
 _ZN8Analitza10PlaneCurveD0Ev@ABI_5_1 4:4.12.80
 _ZN8Analitza10PlaneCurveD1Ev@ABI_5_1 4:4.12.80
 _ZN8Analitza10PlaneCurveD2Ev@ABI_5_1 4:4.12.80
 _ZN8Analitza10PlotsModel10removeRowsEiiRK11QModelIndex@ABI_5_1 4:4.12.80
 _ZN8Analitza10PlotsModel10updatePlotEiPNS_8PlotItemE@ABI_5_1 4:4.12.80
 _ZN8Analitza10PlotsModel11emitChangedEPNS_8PlotItemE@ABI_5_1 4:4.12.80
 _ZN8Analitza10PlotsModel11qt_metacallEN11QMetaObject4CallEiPPv@ABI_5_1 4:4.12.80
 _ZN8Analitza10PlotsModel11qt_metacastEPKc@ABI_5_1 4:4.12.80
 _ZN8Analitza10PlotsModel12indexForNameERK7QString@ABI_5_1 4:4.12.80
 _ZN8Analitza10PlotsModel13setResolutionEi@ABI_5_1 4:4.12.80
 _ZN8Analitza10PlotsModel16staticMetaObjectE@ABI_5_1 4:4.12.80
 _ZN8Analitza10PlotsModel5clearEv@ABI_5_1 4:4.12.80
 _ZN8Analitza10PlotsModel7addPlotEPNS_8PlotItemE@ABI_5_1 4:4.12.80
 _ZN8Analitza10PlotsModel7setDataERK11QModelIndexRK8QVarianti@ABI_5_1 4:4.12.80
 _ZN8Analitza10PlotsModelC1EP7QObject@ABI_5_1 4:4.12.80
 _ZN8Analitza10PlotsModelC2EP7QObject@ABI_5_1 4:4.12.80
 _ZN8Analitza10PlotsModelD0Ev@ABI_5_1 4:4.12.80
 _ZN8Analitza10PlotsModelD1Ev@ABI_5_1 4:4.12.80
 _ZN8Analitza10PlotsModelD2Ev@ABI_5_1 4:4.12.80
 _ZN8Analitza10SpaceCurve6updateERK9QVector3DS3_@ABI_5_1 4:4.12.80
 _ZN8Analitza10SpaceCurveC1EPNS_21AbstractFunctionGraphE@ABI_5_1 4:4.12.80
 _ZN8Analitza10SpaceCurveC2EPNS_21AbstractFunctionGraphE@ABI_5_1 4:4.12.80
 _ZN8Analitza10SpaceCurveD0Ev@ABI_5_1 4:4.12.80
 _ZN8Analitza10SpaceCurveD1Ev@ABI_5_1 4:4.12.80
 _ZN8Analitza10SpaceCurveD2Ev@ABI_5_1 4:4.12.80
 _ZN8Analitza12PlotsFactory4selfEv@ABI_5_1 4:4.12.80
 _ZN8Analitza12PlotsFactoryC1Ev@ABI_5_1 4:4.12.80
 _ZN8Analitza12PlotsFactoryC2Ev@ABI_5_1 4:4.12.80
 _ZN8Analitza12PlotsFactoryD0Ev@ABI_5_1 4:4.12.80
 _ZN8Analitza12PlotsFactoryD1Ev@ABI_5_1 4:4.12.80
 _ZN8Analitza12PlotsFactoryD2Ev@ABI_5_1 4:4.12.80
 _ZN8Analitza13FunctionGraph10setDisplayERK7QString@ABI_5_1 4:4.12.80
 _ZN8Analitza13FunctionGraph11setIntervalERK7QStringRKNS_10ExpressionES6_@ABI_5_1 4:4.12.80
 _ZN8Analitza13FunctionGraph11setIntervalERK7QStringdd@ABI_5_1 4:4.12.80
 _ZN8Analitza13FunctionGraph13setResolutionEi@ABI_5_1 4:4.12.80
 _ZN8Analitza13FunctionGraph14clearIntervalsEv@ABI_5_1 4:4.12.80
 _ZN8Analitza13FunctionGraphC1EPNS_21AbstractFunctionGraphE@ABI_5_1 4:4.12.80
 _ZN8Analitza13FunctionGraphC2EPNS_21AbstractFunctionGraphE@ABI_5_1 4:4.12.80
 _ZN8Analitza13FunctionGraphD0Ev@ABI_5_1 4:4.12.80
 _ZN8Analitza13FunctionGraphD1Ev@ABI_5_1 4:4.12.80
 _ZN8Analitza13FunctionGraphD2Ev@ABI_5_1 4:4.12.80
 _ZN8Analitza20PlotsDictionaryModel11qt_metacallEN11QMetaObject4CallEiPPv@ABI_5_1 4:4.12.80
 _ZN8Analitza20PlotsDictionaryModel11qt_metacastEPKc@ABI_5_1 4:4.12.80
 _ZN8Analitza20PlotsDictionaryModel13setCurrentRowEi@ABI_5_1 4:4.12.80
 _ZN8Analitza20PlotsDictionaryModel15setCurrentIndexERK11QModelIndex@ABI_5_1 4:4.12.80
 _ZN8Analitza20PlotsDictionaryModel16createDictionaryERK7QString@ABI_5_1 4:4.12.80
 _ZN8Analitza20PlotsDictionaryModel16staticMetaObjectE@ABI_5_1 4:4.12.80
 _ZN8Analitza20PlotsDictionaryModel16updatePlotsModelEv@ABI_5_1 4:4.12.80
 _ZN8Analitza20PlotsDictionaryModel21createAllDictionariesEv@ABI_5_1 4:4.12.80
 _ZN8Analitza20PlotsDictionaryModel9dimensionEv@ABI_5_1 4:4.12.80
 _ZN8Analitza20PlotsDictionaryModel9plotModelEv@ABI_5_1 4:4.12.80
 _ZN8Analitza20PlotsDictionaryModelC1EP7QObject@ABI_5_1 4:4.12.80
 _ZN8Analitza20PlotsDictionaryModelC2EP7QObject@ABI_5_1 4:4.12.80
 _ZN8Analitza20PlotsDictionaryModelD0Ev@ABI_5_1 4:4.12.80
 _ZN8Analitza20PlotsDictionaryModelD1Ev@ABI_5_1 4:4.12.80
 _ZN8Analitza20PlotsDictionaryModelD2Ev@ABI_5_1 4:4.12.80
 _ZN8Analitza7Surface6updateERK9QVector3DS3_@ABI_5_1 4:4.12.80
 _ZN8Analitza7SurfaceC1EPNS_21AbstractFunctionGraphE@ABI_5_1 4:4.12.80
 _ZN8Analitza7SurfaceC2EPNS_21AbstractFunctionGraphE@ABI_5_1 4:4.12.80
 _ZN8Analitza7SurfaceD0Ev@ABI_5_1 4:4.12.80
 _ZN8Analitza7SurfaceD1Ev@ABI_5_1 4:4.12.80
 _ZN8Analitza7SurfaceD2Ev@ABI_5_1 4:4.12.80
 _ZN8Analitza8PlotItem10setVisibleEb@ABI_5_1 4:4.12.80
 _ZN8Analitza8PlotItem15emitDataChangedEv@ABI_5_1 4:4.12.80
 _ZN8Analitza8PlotItem7addTagsERK4QSetI7QStringE@ABI_5_1 4:4.12.80
 _ZN8Analitza8PlotItem7setNameERK7QString@ABI_5_1 4:4.12.80
 _ZN8Analitza8PlotItem8setColorERK6QColor@ABI_5_1 4:4.12.80
 _ZN8Analitza8PlotItem8setModelEPNS_10PlotsModelE@ABI_5_1 4:4.12.80
 _ZN8Analitza8PlotItem9clearTagsEv@ABI_5_1 4:4.12.80
 _ZN8Analitza8PlotItemC1ERK7QStringRK6QColor@ABI_5_1 4:4.12.80
 _ZN8Analitza8PlotItemC2ERK7QStringRK6QColor@ABI_5_1 4:4.12.80
 _ZN8Analitza8PlotItemD0Ev@ABI_5_1 4:4.12.80
 _ZN8Analitza8PlotItemD1Ev@ABI_5_1 4:4.12.80
 _ZN8Analitza8PlotItemD2Ev@ABI_5_1 4:4.12.80
 _ZN8Analitza9Plotter2D10m_axeColorE@ABI_5_1 4:4.12.80
 _ZN8Analitza9Plotter2D11setViewportERK6QRectFb@ABI_5_1 4:4.12.80
 _ZN8Analitza9Plotter2D11updateScaleEb@ABI_5_1 4:4.12.80
 _ZN8Analitza9Plotter2D12DegreeSymbolE@ABI_5_1 4:4.12.80
 _ZN8Analitza9Plotter2D12ZoomInFactorE@ABI_5_1 4:4.12.80
 _ZN8Analitza9Plotter2D12moveViewportERK6QPoint@ABI_5_1 4:4.12.80
 _ZN8Analitza9Plotter2D13GradianSymbolE@ABI_5_1 4:4.12.80
 _ZN8Analitza9Plotter2D13ZoomOutFactorE@ABI_5_1 4:4.12.80
 _ZN8Analitza9Plotter2D13drawFunctionsEP12QPaintDevice@ABI_5_1 4:4.12.80
 _ZN8Analitza9Plotter2D13scaleViewportEdRK6QPointb@ABI_5_1 4:4.12.80
 _ZN8Analitza9Plotter2D13setXAxisLabelERK7QString@ABI_5_1 4:4.12.80
 _ZN8Analitza9Plotter2D13setYAxisLabelERK7QString@ABI_5_1 4:4.12.80
 _ZN8Analitza9Plotter2D14setPaintedSizeERK5QSize@ABI_5_1 4:4.12.80
 _ZN8Analitza9Plotter2D15updateFunctionsERK11QModelIndexii@ABI_5_1 4:4.12.80
 _ZN8Analitza9Plotter2D16setGridStyleHintENS_9GridStyleE@ABI_5_1 4:4.12.80
 _ZN8Analitza9Plotter2D17m_derivativeColorE@ABI_5_1 4:4.12.80
 _ZN8Analitza9Plotter2D18setKeepAspectRatioEb@ABI_5_1 4:4.12.80
 _ZN8Analitza9Plotter2D21normalizeUserViewportE6QRectF@ABI_5_1 4:4.12.80
 _ZN8Analitza9Plotter2D3Pi6E@ABI_5_1 4:4.12.80
 _ZN8Analitza9Plotter2D4Pi12E@ABI_5_1 4:4.12.80
 _ZN8Analitza9Plotter2D4Pi36E@ABI_5_1 4:4.12.80
 _ZN8Analitza9Plotter2D6zoomInEb@ABI_5_1 4:4.12.80
 _ZN8Analitza9Plotter2D7zoomOutEb@ABI_5_1 4:4.12.80
 _ZN8Analitza9Plotter2D8PiSymbolE@ABI_5_1 4:4.12.80
 _ZN8Analitza9Plotter2D8drawGridEP12QPaintDevice@ABI_5_1 4:4.12.80
 _ZN8Analitza9Plotter2D8setModelEP18QAbstractItemModel@ABI_5_1 4:4.12.80
 _ZN8Analitza9Plotter2DC1ERK6QSizeF@ABI_5_1 4:4.12.80
 _ZN8Analitza9Plotter2DC2ERK6QSizeF@ABI_5_1 4:4.12.80
 _ZN8Analitza9Plotter2DD0Ev@ABI_5_1 4:4.12.80
 _ZN8Analitza9Plotter2DD1Ev@ABI_5_1 4:4.12.80
 _ZN8Analitza9Plotter2DD2Ev@ABI_5_1 4:4.12.80
 _ZN8Analitza9Plotter3D11fixRotationERK9QVector3D@ABI_5_1 4:4.12.80
 _ZN8Analitza9Plotter3D11setViewportERK6QRectF@ABI_5_1 4:4.12.80
 _ZN8Analitza9Plotter3D11updatePlotsERK11QModelIndexii@ABI_5_1 4:4.12.80
 _ZN8Analitza9Plotter3D12hideAxisHintEv@ABI_5_1 4:4.12.80
 _ZN8Analitza9Plotter3D13initRefPlanesEv@ABI_5_1 4:4.12.80
 _ZN8Analitza9Plotter3D15XAxisArrowColorE@ABI_5_1 4:4.12.80
 _ZN8Analitza9Plotter3D15YAxisArrowColorE@ABI_5_1 4:4.12.80
 _ZN8Analitza9Plotter3D15ZAxisArrowColorE@ABI_5_1 4:4.12.80
 _ZN8Analitza9Plotter3D15selectAxisArrowEii@ABI_5_1 4:4.12.80
 _ZN8Analitza9Plotter3D16resetViewPrivateERK9QVector3D@ABI_5_1 4:4.12.80
 _ZN8Analitza9Plotter3D17showAxisArrowHintENS_13CartesianAxisE@ABI_5_1 4:4.12.80
 _ZN8Analitza9Plotter3D22setPlottingFocusPolicyENS_19PlottingFocusPolicyE@ABI_5_1 4:4.12.80
 _ZN8Analitza9Plotter3D22setReferencePlaneColorERK6QColor@ABI_5_1 4:4.12.80
 _ZN8Analitza9Plotter3D5scaleEd@ABI_5_1 4:4.12.80
 _ZN8Analitza9Plotter3D6initGLEv@ABI_5_1 4:4.12.80
 _ZN8Analitza9Plotter3D6rotateEii@ABI_5_1 4:4.12.80
 _ZN8Analitza9Plotter3D8addPlotsEPNS_8PlotItemE@ABI_5_1 4:4.12.80
 _ZN8Analitza9Plotter3D8initAxesEv@ABI_5_1 4:4.12.80
 _ZN8Analitza9Plotter3D8setModelEP18QAbstractItemModel@ABI_5_1 4:4.12.80
 _ZN8Analitza9Plotter3D9drawPlotsEv@ABI_5_1 4:4.12.80
 _ZN8Analitza9Plotter3D9resetViewEv@ABI_5_1 4:4.12.80
 _ZN8Analitza9Plotter3DC1EP18QAbstractItemModel@ABI_5_1 4:4.12.80
 _ZN8Analitza9Plotter3DC2EP18QAbstractItemModel@ABI_5_1 4:4.12.80
 _ZN8Analitza9Plotter3DD0Ev@ABI_5_1 4:4.12.80
 _ZN8Analitza9Plotter3DD1Ev@ABI_5_1 4:4.12.80
 _ZN8Analitza9Plotter3DD2Ev@ABI_5_1 4:4.12.80
 _ZNK8Analitza10PlaneCurve5jumpsEv@ABI_5_1 4:4.12.80
 _ZNK8Analitza10PlaneCurve6pointsEv@ABI_5_1 4:4.12.80
 _ZNK8Analitza10PlotsModel10headerDataEiN2Qt11OrientationEi@ABI_5_1 4:4.12.80
 _ZNK8Analitza10PlotsModel10metaObjectEv@ABI_5_1 4:4.12.80
 _ZNK8Analitza10PlotsModel11columnCountERK11QModelIndex@ABI_5_1 4:4.12.80
 _ZNK8Analitza10PlotsModel4dataERK11QModelIndexi@ABI_5_1 4:4.12.80
 _ZNK8Analitza10PlotsModel5flagsERK11QModelIndex@ABI_5_1 4:4.12.80
 _ZNK8Analitza10PlotsModel6freeIdEv@ABI_5_1 4:4.12.80
 _ZNK8Analitza10PlotsModel8rowCountERK11QModelIndex@ABI_5_1 4:4.12.80
 _ZNK8Analitza10SpaceCurve5jumpsEv@ABI_5_1 4:4.12.80
 _ZNK8Analitza10SpaceCurve6pointsEv@ABI_5_1 4:4.12.80
 _ZNK8Analitza11PlotBuilder10expressionEv@ABI_5_1 4:4.12.80
 _ZNK8Analitza11PlotBuilder6createERK6QColorRK7QString@ABI_5_1 4:4.12.80
 _ZNK8Analitza11PlotBuilder7canDrawEv@ABI_5_1 4:4.12.80
 _ZNK8Analitza11PlotBuilder7displayEv@ABI_5_1 4:4.12.80
 _ZNK8Analitza12PlotsFactory11requestPlotERKNS_10ExpressionENS_9DimensionEPNS_9VariablesE@ABI_5_1 4:4.12.80
 _ZNK8Analitza12PlotsFactory8examplesE6QFlagsINS_9DimensionEE@ABI_5_1 4:4.12.80
 _ZNK8Analitza13FunctionGraph10expressionEv@ABI_5_1 4:4.12.80
 _ZNK8Analitza13FunctionGraph10parametersEv@ABI_5_1 4:4.12.80
 _ZNK8Analitza13FunctionGraph12hasIntervalsEv@ABI_5_1 4:4.12.80
 _ZNK8Analitza13FunctionGraph14spaceDimensionEv@ABI_5_1 4:4.12.80
 _ZNK8Analitza13FunctionGraph16coordinateSystemEv@ABI_5_1 4:4.12.80
 _ZNK8Analitza13FunctionGraph6errorsEv@ABI_5_1 4:4.12.80
 _ZNK8Analitza13FunctionGraph7displayEv@ABI_5_1 4:4.12.80
 _ZNK8Analitza13FunctionGraph8iconNameEv@ABI_5_1 4:4.12.80
 _ZNK8Analitza13FunctionGraph8intervalERK7QString@ABI_5_1 4:4.12.80
 _ZNK8Analitza13FunctionGraph8intervalERK7QStringb@ABI_5_1 4:4.12.80
 _ZNK8Analitza13FunctionGraph8typeNameEv@ABI_5_1 4:4.12.80
 _ZNK8Analitza13FunctionGraph9isCorrectEv@ABI_5_1 4:4.12.80
 _ZNK8Analitza13FunctionGraph9variablesEv@ABI_5_1 4:4.12.80
 _ZNK8Analitza20PlotsDictionaryModel10currentRowEv@ABI_5_1 4:4.12.80
 _ZNK8Analitza20PlotsDictionaryModel10metaObjectEv@ABI_5_1 4:4.12.80
 _ZNK8Analitza7Surface7indexesEv@ABI_5_1 4:4.12.80
 _ZNK8Analitza7Surface7normalsEv@ABI_5_1 4:4.12.80
 _ZNK8Analitza7Surface8verticesEv@ABI_5_1 4:4.12.80
 _ZNK8Analitza8PlotItem4tagsEv@ABI_5_1 4:4.12.80
 _ZNK8Analitza9Plotter2D10fromWidgetERK6QPoint@ABI_5_1 4:4.12.80
 _ZNK8Analitza9Plotter2D10toViewportERK6QPoint@ABI_5_1 4:4.12.80
 _ZNK8Analitza9Plotter2D11drawCirclesEP8QPainterRKNS0_8GridInfoENS_9GridStyleE@ABI_5_1 4:4.12.80
 _ZNK8Analitza9Plotter2D11drawSquaresEP8QPainterRKNS0_8GridInfoENS_9GridStyleE@ABI_5_1 4:4.12.80
 _ZNK8Analitza9Plotter2D11getGridInfoEv@ABI_5_1 4:4.12.80
 _ZNK8Analitza9Plotter2D12drawMainAxesEP8QPainter@ABI_5_1 4:4.12.80
 _ZNK8Analitza9Plotter2D18drawGridTickLabelsEP8QPainterRKNS0_8GridInfoENS_9GridStyleE@ABI_5_1 4:4.12.80
 _ZNK8Analitza9Plotter2D19computeSubGridColorEv@ABI_5_1 4:4.12.80
 _ZNK8Analitza9Plotter2D19drawPolarTickLabelsEP8QPainterRKNS0_8GridInfoE@ABI_5_1 4:4.12.80
 _ZNK8Analitza9Plotter2D23computeAngleLabelByFracEjj@ABI_5_1 4:4.12.80
 _ZNK8Analitza9Plotter2D23computeAngleLabelByStepEjj@ABI_5_1 4:4.12.80
 _ZNK8Analitza9Plotter2D23drawCartesianTickLabelsEP8QPainterRKNS0_8GridInfoENS_13CartesianAxisE@ABI_5_1 4:4.12.80
 _ZNK8Analitza9Plotter2D5slopeERK7QPointF@ABI_5_1 4:4.12.80
 _ZNK8Analitza9Plotter2D6itemAtEi@ABI_5_1 4:4.12.80
 _ZNK8Analitza9Plotter2D8drawAxesEP8QPainterNS_9GridStyleE@ABI_5_1 4:4.12.80
 _ZNK8Analitza9Plotter2D8toWidgetERK6QLineF@ABI_5_1 4:4.12.80
 _ZNK8Analitza9Plotter2D8toWidgetERK7QPointF@ABI_5_1 4:4.12.80
 _ZNK8Analitza9Plotter2D9calcImageERK7QPointF@ABI_5_1 4:4.12.80
 _ZNK8Analitza9Plotter3D6itemAtEi@ABI_5_1 4:4.12.80
 _ZTIN8Analitza10PlaneCurveE@ABI_5_1 4:4.12.80
 _ZTIN8Analitza10PlotsModelE@ABI_5_1 4:4.12.80
 _ZTIN8Analitza10SpaceCurveE@ABI_5_1 4:4.12.80
 _ZTIN8Analitza12PlotsFactoryE@ABI_5_1 4:4.12.80
 _ZTIN8Analitza13FunctionGraphE@ABI_5_1 4:4.12.80
 _ZTIN8Analitza20PlotsDictionaryModelE@ABI_5_1 4:4.12.80
 _ZTIN8Analitza6ObjectE@ABI_5_1 4:4.12.80
 _ZTIN8Analitza7SurfaceE@ABI_5_1 4:4.12.80
 _ZTIN8Analitza8PlotItemE@ABI_5_1 4:4.12.80
 _ZTIN8Analitza9Plotter2DE@ABI_5_1 4:4.12.80
 _ZTIN8Analitza9Plotter3DE@ABI_5_1 4:4.12.80
 _ZTSN8Analitza10PlaneCurveE@ABI_5_1 4:4.12.80
 _ZTSN8Analitza10PlotsModelE@ABI_5_1 4:4.12.80
 _ZTSN8Analitza10SpaceCurveE@ABI_5_1 4:4.12.80
 _ZTSN8Analitza12PlotsFactoryE@ABI_5_1 4:4.12.80
 _ZTSN8Analitza13FunctionGraphE@ABI_5_1 4:4.12.80
 _ZTSN8Analitza20PlotsDictionaryModelE@ABI_5_1 4:4.12.80
 _ZTSN8Analitza6ObjectE@ABI_5_1 4:4.12.80
 _ZTSN8Analitza7SurfaceE@ABI_5_1 4:4.12.80
 _ZTSN8Analitza8PlotItemE@ABI_5_1 4:4.12.80
 _ZTSN8Analitza9Plotter2DE@ABI_5_1 4:4.12.80
 _ZTSN8Analitza9Plotter3DE@ABI_5_1 4:4.12.80
 _ZTVN8Analitza10PlaneCurveE@ABI_5_1 4:4.12.80
 _ZTVN8Analitza10PlotsModelE@ABI_5_1 4:4.12.80
 _ZTVN8Analitza10SpaceCurveE@ABI_5_1 4:4.12.80
 _ZTVN8Analitza12PlotsFactoryE@ABI_5_1 4:4.12.80
 _ZTVN8Analitza13FunctionGraphE@ABI_5_1 4:4.12.80
 _ZTVN8Analitza20PlotsDictionaryModelE@ABI_5_1 4:4.12.80
 _ZTVN8Analitza6ObjectE@ABI_5_1 4:4.12.80
 _ZTVN8Analitza7SurfaceE@ABI_5_1 4:4.12.80
 _ZTVN8Analitza8PlotItemE@ABI_5_1 4:4.12.80
 _ZTVN8Analitza9Plotter2DE@ABI_5_1 4:4.12.80
 _ZTVN8Analitza9Plotter3DE@ABI_5_1 4:4.12.80
