# SymbolsHelper-Confirmed: 4:4.10.2 amd64
libanalitzagui.so.4abi1 libanalitzagui4abi1 #MINVER#
 ABI_4_1@ABI_4_1 4:4.10.2
 _ZN14OperatorsModel11descriptionERKN8Analitza8OperatorE@ABI_4_1 4:4.10.2
 _ZN14OperatorsModel17updateInformationEv@ABI_4_1 4:4.10.2
 _ZN14OperatorsModel24standardFunctionCallHelpERK7QStringiibb@ABI_4_1 4:4.10.2
 _ZN14OperatorsModel6sampleERKN8Analitza8OperatorE@ABI_4_1 4:4.10.2
 _ZN14OperatorsModel7exampleERKN8Analitza8OperatorE@ABI_4_1 4:4.10.2
 _ZN14OperatorsModelC1EP7QObject@ABI_4_1 4:4.10.2
 _ZN14OperatorsModelC2EP7QObject@ABI_4_1 4:4.10.2
 _ZN14OperatorsModelD0Ev@ABI_4_1 4:4.10.2
 _ZN14OperatorsModelD1Ev@ABI_4_1 4:4.10.2
 _ZN14OperatorsModelD2Ev@ABI_4_1 4:4.10.2
 _ZN18AlgebraHighlighter14highlightBlockERK7QString@ABI_4_1 4:4.10.2
 _ZN18AlgebraHighlighterC1EP13QTextDocumentPKN8Analitza8AnalyzerE@ABI_4_1 4:4.10.2
 _ZN18AlgebraHighlighterC2EP13QTextDocumentPKN8Analitza8AnalyzerE@ABI_4_1 4:4.10.2
 _ZN18AlgebraHighlighterD0Ev@ABI_4_1 4:4.10.2
 _ZN18AlgebraHighlighterD1Ev@ABI_4_1 4:4.10.2
 _ZN18AlgebraHighlighterD2Ev@ABI_4_1 4:4.10.2
 _ZN8Analitza11PlotsView2D10paintEventEP11QPaintEvent@ABI_4_1 4:4.10.2
 _ZN8Analitza11PlotsView2D10wheelEventEP11QWheelEvent@ABI_4_1 4:4.10.2
 _ZN8Analitza11PlotsView2D11qt_metacallEN11QMetaObject4CallEiPPv@ABI_4_1 4:4.10.2
 _ZN8Analitza11PlotsView2D11qt_metacastEPKc@ABI_4_1 4:4.10.2
 _ZN8Analitza11PlotsView2D11removeFuncsERK11QModelIndexii@ABI_4_1 4:4.10.2
 _ZN8Analitza11PlotsView2D11resizeEventEP12QResizeEvent@ABI_4_1 4:4.10.2
 _ZN8Analitza11PlotsView2D11setReadOnlyEb@ABI_4_1 4:4.10.2
 _ZN8Analitza11PlotsView2D11updateFuncsERK11QModelIndexS3_@ABI_4_1 4:4.10.2
 _ZN8Analitza11PlotsView2D11updateFuncsERK11QModelIndexii@ABI_4_1 4:4.10.2
 _ZN8Analitza11PlotsView2D12modelChangedEv@ABI_4_1 4:4.10.2
 _ZN8Analitza11PlotsView2D13drawFunctionsEP12QPaintDevice@ABI_4_1 4:4.10.2
 _ZN8Analitza11PlotsView2D13keyPressEventEP9QKeyEvent@ABI_4_1 4:4.10.2
 _ZN8Analitza11PlotsView2D14mouseMoveEventEP11QMouseEvent@ABI_4_1 4:4.10.2
 _ZN8Analitza11PlotsView2D15mousePressEventEP11QMouseEvent@ABI_4_1 4:4.10.2
 _ZN8Analitza11PlotsView2D15viewportChangedERK6QRectF@ABI_4_1 4:4.10.2
 _ZN8Analitza11PlotsView2D15viewportChangedEv@ABI_4_1 4:4.10.2
 _ZN8Analitza11PlotsView2D16staticMetaObjectE@ABI_4_1 4:4.10.2
 _ZN8Analitza11PlotsView2D17mouseReleaseEventEP11QMouseEvent@ABI_4_1 4:4.10.2
 _ZN8Analitza11PlotsView2D17setSelectionModelEP19QItemSelectionModel@ABI_4_1 4:4.10.2
 _ZN8Analitza11PlotsView2D19snapshotToClipboardEv@ABI_4_1 4:4.10.2
 _ZN8Analitza11PlotsView2D6statusERK7QString@ABI_4_1 4:4.10.2
 _ZN8Analitza11PlotsView2D6zoomInEv@ABI_4_1 4:4.10.2
 _ZN8Analitza11PlotsView2D7toImageERK7QStringNS0_6FormatE@ABI_4_1 4:4.10.2
 _ZN8Analitza11PlotsView2D7zoomOutEv@ABI_4_1 4:4.10.2
 _ZN8Analitza11PlotsView2D8addFuncsERK11QModelIndexii@ABI_4_1 4:4.10.2
 _ZN8Analitza11PlotsView2DC1EP7QWidget@ABI_4_1 4:4.10.2
 _ZN8Analitza11PlotsView2DC2EP7QWidget@ABI_4_1 4:4.10.2
 _ZN8Analitza11PlotsView2DD0Ev@ABI_4_1 4:4.10.2
 _ZN8Analitza11PlotsView2DD1Ev@ABI_4_1 4:4.10.2
 _ZN8Analitza11PlotsView2DD2Ev@ABI_4_1 4:4.10.2
 _ZN8Analitza11PlotsView3D10wheelEventEP11QWheelEvent@ABI_4_1 4:4.10.2
 _ZN8Analitza11PlotsView3D11qt_metacallEN11QMetaObject4CallEiPPv@ABI_4_1 4:4.10.2
 _ZN8Analitza11PlotsView3D11qt_metacastEPKc@ABI_4_1 4:4.10.2
 _ZN8Analitza11PlotsView3D11removeFuncsERK11QModelIndexii@ABI_4_1 4:4.10.2
 _ZN8Analitza11PlotsView3D11updateFuncsERK11QModelIndexS3_@ABI_4_1 4:4.10.2
 _ZN8Analitza11PlotsView3D12initializeGLEv@ABI_4_1 4:4.10.2
 _ZN8Analitza11PlotsView3D12modelChangedEv@ABI_4_1 4:4.10.2
 _ZN8Analitza11PlotsView3D14mouseMoveEventEP11QMouseEvent@ABI_4_1 4:4.10.2
 _ZN8Analitza11PlotsView3D15mousePressEventEP11QMouseEvent@ABI_4_1 4:4.10.2
 _ZN8Analitza11PlotsView3D16staticMetaObjectE@ABI_4_1 4:4.10.2
 _ZN8Analitza11PlotsView3D17setSelectionModelEP19QItemSelectionModel@ABI_4_1 4:4.10.2
 _ZN8Analitza11PlotsView3D7paintGLEv@ABI_4_1 4:4.10.2
 _ZN8Analitza11PlotsView3D8addFuncsERK11QModelIndexii@ABI_4_1 4:4.10.2
 _ZN8Analitza11PlotsView3D8renderGLEv@ABI_4_1 4:4.10.2
 _ZN8Analitza11PlotsView3D8resizeGLEii@ABI_4_1 4:4.10.2
 _ZN8Analitza11PlotsView3D9resetViewEv@ABI_4_1 4:4.10.2
 _ZN8Analitza11PlotsView3DC1EP7QWidget@ABI_4_1 4:4.10.2
 _ZN8Analitza11PlotsView3DC2EP7QWidget@ABI_4_1 4:4.10.2
 _ZN8Analitza11PlotsView3DD0Ev@ABI_4_1 4:4.10.2
 _ZN8Analitza11PlotsView3DD1Ev@ABI_4_1 4:4.10.2
 _ZN8Analitza11PlotsView3DD2Ev@ABI_4_1 4:4.10.2
 _ZN8Analitza14ExpressionEdit10insertTextERK7QString@ABI_4_1 4:4.10.2
 _ZN8Analitza14ExpressionEdit10setCorrectEb@ABI_4_1 4:4.10.2
 _ZN8Analitza14ExpressionEdit11qt_metacallEN11QMetaObject4CallEiPPv@ABI_4_1 4:4.10.2
 _ZN8Analitza14ExpressionEdit11qt_metacastEPKc@ABI_4_1 4:4.10.2
 _ZN8Analitza14ExpressionEdit11returnPressEv@ABI_4_1 4:4.10.2
 _ZN8Analitza14ExpressionEdit11setAnalitzaEPNS_8AnalyzerE@ABI_4_1 4:4.10.2
 _ZN8Analitza14ExpressionEdit12focusInEventEP11QFocusEvent@ABI_4_1 4:4.10.2
 _ZN8Analitza14ExpressionEdit12signalHelperE7QString@ABI_4_1 4:4.10.2
 _ZN8Analitza14ExpressionEdit13focusOutEventEP11QFocusEvent@ABI_4_1 4:4.10.2
 _ZN8Analitza14ExpressionEdit13keyPressEventEP9QKeyEvent@ABI_4_1 4:4.10.2
 _ZN8Analitza14ExpressionEdit13returnPressedEv@ABI_4_1 4:4.10.2
 _ZN8Analitza14ExpressionEdit13setActionTextEP7QAction@ABI_4_1 4:4.10.2
 _ZN8Analitza14ExpressionEdit13setExpressionERKNS_10ExpressionE@ABI_4_1 4:4.10.2
 _ZN8Analitza14ExpressionEdit14showSimplifiedEv@ABI_4_1 4:4.10.2
 _ZN8Analitza14ExpressionEdit15updateCompleterEv@ABI_4_1 4:4.10.2
 _ZN8Analitza14ExpressionEdit16contextMenuEventEP17QContextMenuEvent@ABI_4_1 4:4.10.2
 _ZN8Analitza14ExpressionEdit16staticMetaObjectE@ABI_4_1 4:4.10.2
 _ZN8Analitza14ExpressionEdit6helperERK7QString@ABI_4_1 4:4.10.2
 _ZN8Analitza14ExpressionEdit6helperERK7QStringRK6QPoint@ABI_4_1 4:4.10.2
 _ZN8Analitza14ExpressionEdit7returnPEv@ABI_4_1 4:4.10.2
 _ZN8Analitza14ExpressionEdit7setModeEN18AlgebraHighlighter4ModeE@ABI_4_1 4:4.10.2
 _ZN8Analitza14ExpressionEdit8lastWordEi@ABI_4_1 4:4.10.2
 _ZN8Analitza14ExpressionEdit8removenlEv@ABI_4_1 4:4.10.2
 _ZN8Analitza14ExpressionEdit8simplifyEv@ABI_4_1 4:4.10.2
 _ZN8Analitza14ExpressionEdit9completedERK7QString@ABI_4_1 4:4.10.2
 _ZN8Analitza14ExpressionEdit9cursorMovEv@ABI_4_1 4:4.10.2
 _ZN8Analitza14ExpressionEditC1EP7QWidgetN18AlgebraHighlighter4ModeE@ABI_4_1 4:4.10.2
 _ZN8Analitza14ExpressionEditC2EP7QWidgetN18AlgebraHighlighter4ModeE@ABI_4_1 4:4.10.2
 _ZN8Analitza14ExpressionEditD0Ev@ABI_4_1 4:4.10.2
 _ZN8Analitza14ExpressionEditD1Ev@ABI_4_1 4:4.10.2
 _ZN8Analitza14ExpressionEditD2Ev@ABI_4_1 4:4.10.2
 _ZN8Analitza14VariablesModel11qt_metacallEN11QMetaObject4CallEiPPv@ABI_4_1 4:4.10.2
 _ZN8Analitza14VariablesModel11qt_metacastEPKc@ABI_4_1 4:4.10.2
 _ZN8Analitza14VariablesModel12setVariablesEPNS_9VariablesE@ABI_4_1 4:4.10.2
 _ZN8Analitza14VariablesModel14insertVariableERK7QStringRKNS_10ExpressionE@ABI_4_1 4:4.10.2
 _ZN8Analitza14VariablesModel16staticMetaObjectE@ABI_4_1 4:4.10.2
 _ZN8Analitza14VariablesModel17updateInformationEv@ABI_4_1 4:4.10.2
 _ZN8Analitza14VariablesModel7setDataERK11QModelIndexRK8QVarianti@ABI_4_1 4:4.10.2
 _ZN8Analitza14VariablesModelC1EP7QObject@ABI_4_1 4:4.10.2
 _ZN8Analitza14VariablesModelC1EPNS_9VariablesEP7QObject@ABI_4_1 4:4.10.2
 _ZN8Analitza14VariablesModelC2EP7QObject@ABI_4_1 4:4.10.2
 _ZN8Analitza14VariablesModelC2EPNS_9VariablesEP7QObject@ABI_4_1 4:4.10.2
 _ZN8Analitza14VariablesModelD0Ev@ABI_4_1 4:4.10.2
 _ZN8Analitza14VariablesModelD1Ev@ABI_4_1 4:4.10.2
 _ZN8Analitza14VariablesModelD2Ev@ABI_4_1 4:4.10.2
 _ZNK14OperatorsModel10headerDataEiN2Qt11OrientationEi@ABI_4_1 4:4.10.2
 _ZNK14OperatorsModel11columnCountERK11QModelIndex@ABI_4_1 4:4.10.2
 _ZNK14OperatorsModel13parameterHelpERK11QModelIndexib@ABI_4_1 4:4.10.2
 _ZNK14OperatorsModel20indexForOperatorNameERK7QString@ABI_4_1 4:4.10.2
 _ZNK14OperatorsModel4dataERK11QModelIndexi@ABI_4_1 4:4.10.2
 _ZNK14OperatorsModel8rowCountERK11QModelIndex@ABI_4_1 4:4.10.2
 _ZNK18AlgebraHighlighter11editingNameEv@ABI_4_1 4:4.10.2
 _ZNK18AlgebraHighlighter13editingBoundsEv@ABI_4_1 4:4.10.2
 _ZNK18AlgebraHighlighter16editingParameterEv@ABI_4_1 4:4.10.2
 _ZNK8Analitza11PlotsView2D10metaObjectEv@ABI_4_1 4:4.10.2
 _ZNK8Analitza11PlotsView2D15currentFunctionEv@ABI_4_1 4:4.10.2
 _ZNK8Analitza11PlotsView2D15definedViewportEv@ABI_4_1 4:4.10.2
 _ZNK8Analitza11PlotsView3D10metaObjectEv@ABI_4_1 4:4.10.2
 _ZNK8Analitza14ExpressionEdit10expressionEv@ABI_4_1 4:4.10.2
 _ZNK8Analitza14ExpressionEdit10metaObjectEv@ABI_4_1 4:4.10.2
 _ZNK8Analitza14ExpressionEdit8helpShowERK7QStringibPKNS_9VariablesE@ABI_4_1 4:4.10.2
 _ZNK8Analitza14ExpressionEdit8isMathMLEv@ABI_4_1 4:4.10.2
 _ZNK8Analitza14ExpressionEdit9isCorrectEv@ABI_4_1 4:4.10.2
 _ZNK8Analitza14VariablesModel10headerDataEiN2Qt11OrientationEi@ABI_4_1 4:4.10.2
 _ZNK8Analitza14VariablesModel10metaObjectEv@ABI_4_1 4:4.10.2
 _ZNK8Analitza14VariablesModel4dataERK11QModelIndexi@ABI_4_1 4:4.10.2
 _ZNK8Analitza14VariablesModel5flagsERK11QModelIndex@ABI_4_1 4:4.10.2
 _ZNK8Analitza14VariablesModel8rowCountERK11QModelIndex@ABI_4_1 4:4.10.2
 _ZTI14OperatorsModel@ABI_4_1 4:4.10.2
 _ZTI18AlgebraHighlighter@ABI_4_1 4:4.10.2
 _ZTIN8Analitza11PlotsView2DE@ABI_4_1 4:4.10.2
 _ZTIN8Analitza11PlotsView3DE@ABI_4_1 4:4.10.2
 _ZTIN8Analitza14ExpressionEditE@ABI_4_1 4:4.10.2
 _ZTIN8Analitza14VariablesModelE@ABI_4_1 4:4.10.2
 _ZTIN8Analitza6ObjectE@ABI_4_1 4:4.10.2
 _ZTS14OperatorsModel@ABI_4_1 4:4.10.2
 _ZTS18AlgebraHighlighter@ABI_4_1 4:4.10.2
 _ZTSN8Analitza11PlotsView2DE@ABI_4_1 4:4.10.2
 _ZTSN8Analitza11PlotsView3DE@ABI_4_1 4:4.10.2
 _ZTSN8Analitza14ExpressionEditE@ABI_4_1 4:4.10.2
 _ZTSN8Analitza14VariablesModelE@ABI_4_1 4:4.10.2
 _ZTSN8Analitza6ObjectE@ABI_4_1 4:4.10.2
 _ZTV14OperatorsModel@ABI_4_1 4:4.10.2
 _ZTV18AlgebraHighlighter@ABI_4_1 4:4.10.2
 _ZTVN8Analitza11PlotsView2DE@ABI_4_1 4:4.10.2
 _ZTVN8Analitza11PlotsView3DE@ABI_4_1 4:4.10.2
 _ZTVN8Analitza14ExpressionEditE@ABI_4_1 4:4.10.2
 _ZTVN8Analitza14VariablesModelE@ABI_4_1 4:4.10.2
 _ZTVN8Analitza6ObjectE@ABI_4_1 4:4.10.2
 (c++)"non-virtual thunk to Analitza::ExpressionEdit::~ExpressionEdit()@ABI_4_1" 4:4.10.2
 (c++)"non-virtual thunk to Analitza::PlotsView2D::currentFunction() const@ABI_4_1" 4:4.10.2
 (c++)"non-virtual thunk to Analitza::PlotsView2D::drawFunctions(QPaintDevice*)@ABI_4_1" 4:4.10.2
 (c++)"non-virtual thunk to Analitza::PlotsView2D::modelChanged()@ABI_4_1" 4:4.10.2
 (c++)"non-virtual thunk to Analitza::PlotsView2D::viewportChanged()@ABI_4_1" 4:4.10.2
 (c++)"non-virtual thunk to Analitza::PlotsView2D::~PlotsView2D()@ABI_4_1" 4:4.10.2
 (c++)"non-virtual thunk to Analitza::PlotsView3D::modelChanged()@ABI_4_1" 4:4.10.2
 (c++)"non-virtual thunk to Analitza::PlotsView3D::renderGL()@ABI_4_1" 4:4.10.2
 (c++)"non-virtual thunk to Analitza::PlotsView3D::~PlotsView3D()@ABI_4_1" 4:4.10.2
